target datalayout = "e-m:e-p270:32:32-p271:32:32-p272:64:64-i64:64-i128:128-f80:128-n8:16:32:64-S128"
target triple = "x86_64-pc-linux-gnu"

%class.GrowableArrayBase = type { i32, i32 }
%class.GrowableArrayMetadata = type { i64 }
%class.ResourceBitMap = type { %class.GrowableBitMap }
%class.GrowableBitMap = type { %class.BitMap }
%class.BitMap = type { ptr, i64 }
%class.Instruction = type { ptr, i32, i32, i32, ptr, ptr, ptr, %class.LIR_Opr, i32, ptr, ptr, ptr, ptr }
%class.LIR_Opr = type { i64 }
%class.LoopInvariantCodeMotion = type <{ ptr, ptr, ptr, ptr, i8, [7 x i8] }>
%class.BlockBegin = type { %class.StateSplit, i32, i32, i32, i32, i32, i32, i32, i32, i32, %class.ResourceBitMap, %class.BlockList, %class.BlockList, ptr, ptr, %class.BlockList, ptr, i32, [4 x i8], %class.Label, ptr, %class.ResourceBitMap, %class.ResourceBitMap, %class.ResourceBitMap, %class.ResourceBitMap, %class.ResourceBitMap, ptr, i32, i32 }
%class.StateSplit = type { %class.Instruction, ptr }
%class.BlockList = type { %class.GrowableArray.0 }
%class.GrowableArray.0 = type { %class.GrowableArrayWithAllocator.1, %class.GrowableArrayMetadata }
%class.GrowableArrayWithAllocator.1 = type { %class.GrowableArrayView.2 }
%class.GrowableArrayView.2 = type { %class.GrowableArrayBase, ptr }
%class.Label = type <{ i32, [4 x i32], i32, ptr, i8, [7 x i8] }>

; Function Attrs: mustprogress nounwind uwtable
define linkonce_odr hidden noundef zeroext i1 @_ZNK17GrowableArrayViewIP10BlockBeginE8containsERKS1_(ptr noundef nonnull align 8 dereferenceable(16) %0, ptr noundef nonnull align 8 dereferenceable(8) %1) #1 comdat align 2 {
  %3 = alloca i1, align 1
  %4 = alloca ptr, align 8
  %5 = alloca ptr, align 8
  %6 = alloca i32, align 4
  store ptr %0, ptr %4, align 8
  store ptr %1, ptr %5, align 8
  %7 = load ptr, ptr %4, align 8
  store i32 0, ptr %6, align 4
  br label %8

8:                                                ; preds = %25, %2
  %9 = load i32, ptr %6, align 4
  %10 = getelementptr inbounds %class.GrowableArrayBase, ptr %7, i32 0, i32 0
  %11 = load i32, ptr %10, align 8
  %12 = icmp slt i32 %9, %11
  br i1 %12, label %13, label %28

13:                                               ; preds = %8
  %14 = getelementptr inbounds %class.GrowableArrayView.2, ptr %7, i32 0, i32 1
  %15 = load ptr, ptr %14, align 8
  %16 = load i32, ptr %6, align 4
  %17 = sext i32 %16 to i64
  %18 = getelementptr inbounds ptr, ptr %15, i64 %17
  %19 = load ptr, ptr %18, align 8
  %20 = load ptr, ptr %5, align 8
  %21 = load ptr, ptr %20, align 8
  %22 = icmp eq ptr %19, %21
  br i1 %22, label %23, label %24

23:                                               ; preds = %13
  store i1 true, ptr %3, align 1
  br label %29

24:                                               ; preds = %13
  br label %25

25:                                               ; preds = %24
  %26 = load i32, ptr %6, align 4
  %27 = add nsw i32 %26, 1
  store i32 %27, ptr %6, align 4
  br label %8, !llvm.loop !24

28:                                               ; preds = %8
  store i1 false, ptr %3, align 1
  br label %29

29:                                               ; preds = %28, %23
  %30 = load i1, ptr %3, align 1
  ret i1 %30
}

; Function Attrs: mustprogress nounwind uwtable
define linkonce_odr hidden noundef nonnull align 8 dereferenceable(8) ptr @_ZN17GrowableArrayViewIP10BlockBeginE2atEi(ptr noundef nonnull align 8 dereferenceable(16) %0, i32 noundef %1) #1 comdat align 2 {
  %3 = alloca ptr, align 8
  %4 = alloca i32, align 4
  store ptr %0, ptr %3, align 8
  store i32 %1, ptr %4, align 4
  %5 = load ptr, ptr %3, align 8
  %6 = getelementptr inbounds %class.GrowableArrayView.2, ptr %5, i32 0, i32 1
  %7 = load ptr, ptr %6, align 8
  %8 = load i32, ptr %4, align 4
  %9 = sext i32 %8 to i64
  %10 = getelementptr inbounds ptr, ptr %7, i64 %9
  ret ptr %10
}

; Function Attrs: mustprogress nounwind uwtable
define linkonce_odr hidden noundef i32 @_ZNK17GrowableArrayBase6lengthEv(ptr noundef nonnull align 4 dereferenceable(8) %0) #1 comdat align 2 {
  %2 = alloca ptr, align 8
  store ptr %0, ptr %2, align 8
  %3 = load ptr, ptr %2, align 8
  %4 = getelementptr inbounds %class.GrowableArrayBase, ptr %3, i32 0, i32 0
  %5 = load i32, ptr %4, align 4
  ret i32 %5
}

; Function Attrs: mustprogress nounwind uwtable
define linkonce_odr hidden noundef ptr @_ZNK10StateSplit5stateEv(ptr noundef nonnull align 8 dereferenceable(104) %0) #1 comdat align 2 {
  %2 = alloca ptr, align 8
  store ptr %0, ptr %2, align 8
  %3 = load ptr, ptr %2, align 8
  %4 = getelementptr inbounds %class.StateSplit, ptr %3, i32 0, i32 1
  %5 = load ptr, ptr %4, align 8
  ret ptr %5
}

; Function Attrs: mustprogress nounwind uwtable
define linkonce_odr hidden noundef ptr @_ZNK11Instruction12state_beforeEv(ptr noundef nonnull align 8 dereferenceable(96) %0) #1 comdat align 2 {
  %2 = alloca ptr, align 8
  store ptr %0, ptr %2, align 8
  %3 = load ptr, ptr %2, align 8
  %4 = getelementptr inbounds %class.Instruction, ptr %3, i32 0, i32 9
  %5 = load ptr, ptr %4, align 8
  ret ptr %5
}

; Function Attrs: mustprogress nounwind uwtable
define linkonce_odr hidden noundef zeroext i1 @_ZNK10BlockBegin14is_predecessorEPS_(ptr noundef nonnull align 8 dereferenceable(408) %0, ptr noundef %1) #1 comdat align 2 {
  %3 = alloca ptr, align 8
  %4 = alloca ptr, align 8
  store ptr %0, ptr %3, align 8
  store ptr %1, ptr %4, align 8
  %5 = load ptr, ptr %3, align 8
  %6 = getelementptr inbounds %class.BlockBegin, ptr %5, i32 0, i32 11
  %7 = call noundef zeroext i1 @_ZNK17GrowableArrayViewIP10BlockBeginE8containsERKS1_(ptr noundef nonnull align 8 dereferenceable(16) %6, ptr noundef nonnull align 8 dereferenceable(8) %4)
  ret i1 %7
}

; Function Attrs: mustprogress nounwind uwtable
define linkonce_odr hidden noundef ptr @_ZNK10BlockBegin3endEv(ptr noundef nonnull align 8 dereferenceable(408) %0) #1 comdat align 2 {
  %2 = alloca ptr, align 8
  store ptr %0, ptr %2, align 8
  %3 = load ptr, ptr %2, align 8
  %4 = getelementptr inbounds %class.BlockBegin, ptr %3, i32 0, i32 14
  %5 = load ptr, ptr %4, align 8
  ret ptr %5
}

; Function Attrs: mustprogress nounwind uwtable
define linkonce_odr hidden noundef i32 @_ZNK10BlockBegin15number_of_predsEv(ptr noundef nonnull align 8 dereferenceable(408) %0) #1 comdat align 2 {
  %2 = alloca ptr, align 8
  store ptr %0, ptr %2, align 8
  %3 = load ptr, ptr %2, align 8
  %4 = getelementptr inbounds %class.BlockBegin, ptr %3, i32 0, i32 11
  %5 = call noundef i32 @_ZNK17GrowableArrayBase6lengthEv(ptr noundef nonnull align 4 dereferenceable(8) %4)
  ret i32 %5
}

; Function Attrs: mustprogress nounwind uwtable
define linkonce_odr hidden noundef ptr @_ZNK10BlockBegin9dominatorEv(ptr noundef nonnull align 8 dereferenceable(408) %0) #1 comdat align 2 {
  %2 = alloca ptr, align 8
  store ptr %0, ptr %2, align 8
  %3 = load ptr, ptr %2, align 8
  %4 = getelementptr inbounds %class.BlockBegin, ptr %3, i32 0, i32 13
  %5 = load ptr, ptr %4, align 8
  ret ptr %5
}

; Function Attrs: mustprogress nounwind uwtable
define hidden void @_ZN23LoopInvariantCodeMotionC2EP18ShortLoopOptimizerP20GlobalValueNumberingP10BlockBeginP9BlockList(ptr noundef nonnull align 8 dereferenceable(33) %0, ptr noundef %1, ptr noundef %2, ptr noundef %3, ptr noundef %4) unnamed_addr #1 align 2 {
  %6 = alloca ptr, align 8
  %7 = alloca ptr, align 8
  %8 = alloca ptr, align 8
  %9 = alloca ptr, align 8
  %10 = alloca ptr, align 8
  %11 = alloca ptr, align 8
  %12 = alloca ptr, align 8
  %13 = alloca i32, align 4
  store ptr %0, ptr %6, align 8
  store ptr %1, ptr %7, align 8
  store ptr %2, ptr %8, align 8
  store ptr %3, ptr %9, align 8
  store ptr %4, ptr %10, align 8
  %14 = load ptr, ptr %6, align 8
  %15 = getelementptr inbounds %class.LoopInvariantCodeMotion, ptr %14, i32 0, i32 0
  %16 = load ptr, ptr %8, align 8
  store ptr %16, ptr %15, align 8
  %17 = getelementptr inbounds %class.LoopInvariantCodeMotion, ptr %14, i32 0, i32 1
  %18 = load ptr, ptr %7, align 8
  store ptr %18, ptr %17, align 8
  %19 = getelementptr inbounds %class.LoopInvariantCodeMotion, ptr %14, i32 0, i32 2
  store ptr null, ptr %19, align 8
  %20 = getelementptr inbounds %class.LoopInvariantCodeMotion, ptr %14, i32 0, i32 3
  store ptr null, ptr %20, align 8
  %21 = getelementptr inbounds %class.LoopInvariantCodeMotion, ptr %14, i32 0, i32 4
  store i8 0, ptr %21, align 8
  %22 = load ptr, ptr %9, align 8
  %23 = call noundef ptr @_ZNK10BlockBegin9dominatorEv(ptr noundef nonnull align 8 dereferenceable(408) %22)
  store ptr %23, ptr %11, align 8
  %24 = load ptr, ptr %11, align 8
  %25 = call noundef i32 @_ZNK10BlockBegin15number_of_predsEv(ptr noundef nonnull align 8 dereferenceable(408) %24)
  %26 = icmp eq i32 %25, 0
  br i1 %26, label %27, label %28

27:                                               ; preds = %5
  br label %66

28:                                               ; preds = %5
  %29 = load ptr, ptr %11, align 8
  %30 = call noundef ptr @_ZNK10BlockBegin3endEv(ptr noundef nonnull align 8 dereferenceable(408) %29)
  %31 = call noundef ptr @_ZN11Instruction4prevEv(ptr noundef nonnull align 8 dereferenceable(96) %30)
  %32 = getelementptr inbounds %class.LoopInvariantCodeMotion, ptr %14, i32 0, i32 2
  store ptr %31, ptr %32, align 8
  %33 = load ptr, ptr %9, align 8
  %34 = load ptr, ptr %11, align 8
  %35 = call noundef zeroext i1 @_ZNK10BlockBegin14is_predecessorEPS_(ptr noundef nonnull align 8 dereferenceable(408) %33, ptr noundef %34)
  %36 = getelementptr inbounds %class.LoopInvariantCodeMotion, ptr %14, i32 0, i32 4
  %37 = zext i1 %35 to i8
  store i8 %37, ptr %36, align 8
  %38 = load ptr, ptr %11, align 8
  %39 = call noundef ptr @_ZNK10BlockBegin3endEv(ptr noundef nonnull align 8 dereferenceable(408) %38)
  store ptr %39, ptr %12, align 8
  %40 = load ptr, ptr %12, align 8
  %41 = call noundef ptr @_ZNK11Instruction12state_beforeEv(ptr noundef nonnull align 8 dereferenceable(96) %40)
  %42 = getelementptr inbounds %class.LoopInvariantCodeMotion, ptr %14, i32 0, i32 3
  store ptr %41, ptr %42, align 8
  %43 = getelementptr inbounds %class.LoopInvariantCodeMotion, ptr %14, i32 0, i32 3
  %44 = load ptr, ptr %43, align 8
  %45 = icmp ne ptr %44, null
  br i1 %45, label %50, label %46

46:                                               ; preds = %28
  %47 = load ptr, ptr %12, align 8
  %48 = call noundef ptr @_ZNK10StateSplit5stateEv(ptr noundef nonnull align 8 dereferenceable(104) %47)
  %49 = getelementptr inbounds %class.LoopInvariantCodeMotion, ptr %14, i32 0, i32 3
  store ptr %48, ptr %49, align 8
  br label %50

50:                                               ; preds = %46, %28
  %51 = load ptr, ptr %9, align 8
  call void @_ZN23LoopInvariantCodeMotion13process_blockEP10BlockBegin(ptr noundef nonnull align 8 dereferenceable(33) %14, ptr noundef %51)
  %52 = load ptr, ptr %10, align 8
  %53 = call noundef i32 @_ZNK17GrowableArrayBase6lengthEv(ptr noundef nonnull align 4 dereferenceable(8) %52)
  %54 = sub nsw i32 %53, 1
  store i32 %54, ptr %13, align 4
  br label %55

55:                                               ; preds = %63, %50
  %56 = load i32, ptr %13, align 4
  %57 = icmp sge i32 %56, 1
  br i1 %57, label %58, label %66

58:                                               ; preds = %55
  %59 = load ptr, ptr %10, align 8
  %60 = load i32, ptr %13, align 4
  %61 = call noundef nonnull align 8 dereferenceable(8) ptr @_ZN17GrowableArrayViewIP10BlockBeginE2atEi(ptr noundef nonnull align 8 dereferenceable(16) %59, i32 noundef %60)
  %62 = load ptr, ptr %61, align 8
  call void @_ZN23LoopInvariantCodeMotion13process_blockEP10BlockBegin(ptr noundef nonnull align 8 dereferenceable(33) %14, ptr noundef %62)
  br label %63

63:                                               ; preds = %58
  %64 = load i32, ptr %13, align 4
  %65 = add nsw i32 %64, -1
  store i32 %65, ptr %13, align 4
  br label %55, !llvm.loop !19

66:                                               ; preds = %55, %27
  ret void
}