; Function Attrs: mustprogress nounwind uwtable
define hidden void @_ZN23LoopInvariantCodeMotionC2EP18ShortLoopOptimizerP20GlobalValueNumberingP10BlockBeginP9BlockList(ptr nocapture noundef nonnull align 8 dereferenceable(33) %0, ptr noundef %1, ptr noundef %2, ptr nocapture noundef %3, ptr nocapture noundef readonly %4) unnamed_addr #0 align 2 {
  store ptr %2, ptr %0, align 8
  %6 = getelementptr inbounds i8, ptr %0, i64 8
  store ptr %1, ptr %6, align 8
  %7 = getelementptr inbounds i8, ptr %0, i64 16
  %8 = getelementptr inbounds i8, ptr %0, i64 24
  %9 = getelementptr inbounds i8, ptr %0, i64 32
  %10 = getelementptr inbounds i8, ptr %3, i64 208
  tail call void @llvm.memset.p0.i64(ptr noundef nonnull align 8 dereferenceable(17) %7, i8 0, i64 17, i1 false)
  %11 = load ptr, ptr %10, align 8
  %12 = getelementptr inbounds i8, ptr %11, i64 160
  %13 = load i32, ptr %12, align 4
  %14 = icmp eq i32 %13, 0
  br i1 %14, label %.loopexit, label %15

15:                                               ; preds = %5
  %16 = getelementptr inbounds i8, ptr %11, i64 216
  %17 = load ptr, ptr %16, align 8
  %18 = tail call noundef ptr @_ZN11Instruction4prevEv(ptr noundef nonnull align 8 dereferenceable(96) %17) #6
  store ptr %18, ptr %7, align 8
  %19 = getelementptr inbounds i8, ptr %3, i64 160
  %20 = load i32, ptr %19, align 8
  %21 = icmp sgt i32 %20, 0
  br i1 %21, label %.lr.ph.i.i, label %_ZNK10BlockBegin14is_predecessorEPS_.exit

.lr.ph.i.i:                                       ; preds = %15
  %22 = getelementptr inbounds i8, ptr %3, i64 168
  %23 = load ptr, ptr %22, align 8
  %24 = zext nneg i32 %20 to i64
  %25 = load ptr, ptr %23, align 8
  %26 = icmp eq ptr %25, %11
  br i1 %26, label %_ZNK10BlockBegin14is_predecessorEPS_.exit, label %.lr.ph.i

.lr.ph.i:                                         ; preds = %.lr.ph.i.i, %27
  %indvars.iv.i1.i = phi i64 [ %indvars.iv.next.i.i, %27 ], [ 0, %.lr.ph.i.i ]
  %indvars.iv.next.i.i = add nuw nsw i64 %indvars.iv.i1.i, 1
  %exitcond.not.i.i = icmp eq i64 %indvars.iv.next.i.i, %24
  br i1 %exitcond.not.i.i, label %_ZNK17GrowableArrayViewIP10BlockBeginE8containsERKS1_.exit.loopexit.i, label %27, !llvm.loop !20

27:                                               ; preds = %.lr.ph.i
  %28 = getelementptr inbounds ptr, ptr %23, i64 %indvars.iv.next.i.i
  %29 = load ptr, ptr %28, align 8
  %30 = icmp eq ptr %29, %11
  br i1 %30, label %_ZNK17GrowableArrayViewIP10BlockBeginE8containsERKS1_.exit.loopexit.i, label %.lr.ph.i, !llvm.loop !20

_ZNK17GrowableArrayViewIP10BlockBeginE8containsERKS1_.exit.loopexit.i: ; preds = %27, %.lr.ph.i
  %indvars.iv.next.i.i.lcssa = phi i64 [ %indvars.iv.next.i.i, %27 ], [ %24, %.lr.ph.i ]
  %31 = icmp ult i64 %indvars.iv.next.i.i.lcssa, %24
  %32 = zext i1 %31 to i8
  br label %_ZNK10BlockBegin14is_predecessorEPS_.exit

_ZNK10BlockBegin14is_predecessorEPS_.exit:        ; preds = %15, %.lr.ph.i.i, %_ZNK17GrowableArrayViewIP10BlockBeginE8containsERKS1_.exit.loopexit.i
  %.lcssa.i.i = phi i8 [ 0, %15 ], [ 1, %.lr.ph.i.i ], [ %32, %_ZNK17GrowableArrayViewIP10BlockBeginE8containsERKS1_.exit.loopexit.i ]
  store i8 %.lcssa.i.i, ptr %9, align 8
  %33 = load ptr, ptr %16, align 8
  %34 = getelementptr inbounds i8, ptr %33, i64 64
  %35 = load ptr, ptr %34, align 8
  store ptr %35, ptr %8, align 8
  %.not = icmp eq ptr %35, null
  br i1 %.not, label %36, label %39

36:                                               ; preds = %_ZNK10BlockBegin14is_predecessorEPS_.exit
  %37 = getelementptr inbounds i8, ptr %33, i64 96
  %38 = load ptr, ptr %37, align 8
  store ptr %38, ptr %8, align 8
  br label %39

39:                                               ; preds = %36, %_ZNK10BlockBegin14is_predecessorEPS_.exit
  tail call void @_ZN23LoopInvariantCodeMotion13process_blockEP10BlockBegin(ptr noundef nonnull align 8 dereferenceable(33) %0, ptr noundef nonnull %3)
  %40 = load i32, ptr %4, align 4
  %41 = icmp sgt i32 %40, 1
  br i1 %41, label %.lr.ph, label %.loopexit

.lr.ph:                                           ; preds = %39
  %42 = getelementptr inbounds i8, ptr %4, i64 8
  %43 = zext nneg i32 %40 to i64
  br label %44

44:                                               ; preds = %.lr.ph, %44
  %indvars.iv = phi i64 [ %43, %.lr.ph ], [ %indvars.iv.next, %44 ]
  %indvars.iv.next = add nsw i64 %indvars.iv, -1
  %45 = load ptr, ptr %42, align 8
  %46 = getelementptr inbounds ptr, ptr %45, i64 %indvars.iv.next
  %47 = load ptr, ptr %46, align 8
  tail call void @_ZN23LoopInvariantCodeMotion13process_blockEP10BlockBegin(ptr noundef nonnull align 8 dereferenceable(33) %0, ptr noundef %47)
  %48 = icmp ugt i64 %indvars.iv, 2
  br i1 %48, label %44, label %.loopexit, !llvm.loop !21

.loopexit:                                        ; preds = %44, %39, %5
  ret void
}